; Function Attrs: nounwind uwtable
define i64 @l___private_Lean_Compiler_LCNF_FloatLetIn_0__Lean_Compiler_LCNF_FloatLetIn_hashDecision____x40_Lean_Compiler_LCNF_FloatLetIn___hyg_16_(ptr noundef %0) local_unnamed_addr #1 {
  %2 = ptrtoint ptr %0 to i64
  %3 = and i64 %2, 1
  %.not.i = icmp eq i64 %3, 0
  br i1 %.not.i, label %7, label %4

4:                                                ; preds = %1
  %5 = lshr i64 %2, 1
  %6 = trunc i64 %5 to i32
  br label %lean_obj_tag.exit

7:                                                ; preds = %1
  %8 = getelementptr i8, ptr %0, i64 4
  %.val.i = load i32, ptr %8, align 4
  %9 = lshr i32 %.val.i, 24
  br label %lean_obj_tag.exit

lean_obj_tag.exit:                                ; preds = %4, %7
  %.0.i = phi i32 [ %6, %4 ], [ %9, %7 ]
  switch i32 %.0.i, label %16 [
    i32 0, label %10
    i32 1, label %17
    i32 2, label %15
  ]

10:                                               ; preds = %lean_obj_tag.exit
  %11 = getelementptr inbounds nuw i8, ptr %0, i64 8
  %12 = load ptr, ptr %11, align 8, !tbaa !4
  %13 = tail call i64 @l_Lean_Name_hash___override(ptr noundef %12) #4
  %14 = tail call i64 @lean_uint64_mix_hash(i64 noundef 0, i64 noundef %13) #4
  br label %17

15:                                               ; preds = %lean_obj_tag.exit
  br label %17

16:                                               ; preds = %lean_obj_tag.exit
  br label %17

17:                                               ; preds = %lean_obj_tag.exit, %16, %15, %10
  %.0 = phi i64 [ 3, %16 ], [ 2, %15 ], [ %14, %10 ], [ 1, %lean_obj_tag.exit ]
  ret i64 %.0
}